; Function Attrs: nounwind uwtable
define internal fastcc void @If_CutTraverse_rec(ptr noundef %0, ptr noundef %1) unnamed_addr #1 {
  %3 = load i32, ptr %0, align 8
  %4 = and i32 %3, 256
  %.not = icmp eq i32 %4, 0
  br i1 %.not, label %5, label %46

5:                                                ; preds = %2
  %6 = or disjoint i32 %3, 256
  store i32 %6, ptr %0, align 8
  %7 = and i32 %3, 15
  %.not15 = icmp eq i32 %7, 4
  br i1 %.not15, label %8, label %10

8:                                                ; preds = %5
  %9 = getelementptr i8, ptr %0, i64 24
  %.val13 = load ptr, ptr %9, align 8
  tail call fastcc void @If_CutTraverse_rec(ptr noundef %.val13, ptr noundef %1)
  %.val.pre = load i32, ptr %0, align 8
  br label %10

10:                                               ; preds = %8, %5
  %.val = phi i32 [ %.val.pre, %8 ], [ %6, %5 ]
  %11 = and i32 %.val, 15
  %.not16 = icmp eq i32 %11, 4
  br i1 %.not16, label %12, label %14

12:                                               ; preds = %10
  %13 = getelementptr i8, ptr %0, i64 32
  %.val14 = load ptr, ptr %13, align 8
  tail call fastcc void @If_CutTraverse_rec(ptr noundef %.val14, ptr noundef %1)
  br label %14

14:                                               ; preds = %12, %10
  %15 = getelementptr inbounds nuw i8, ptr %1, i64 4
  %16 = load i32, ptr %15, align 4
  %17 = load i32, ptr %1, align 8
  %18 = icmp eq i32 %16, %17
  br i1 %18, label %19, label %.Vec_PtrGrow.exit11_crit_edge.i

.Vec_PtrGrow.exit11_crit_edge.i:                  ; preds = %14
  %.phi.trans.insert.i = getelementptr inbounds nuw i8, ptr %1, i64 8
  %.pre.i = load ptr, ptr %.phi.trans.insert.i, align 8
  br label %Vec_PtrPush.exit

19:                                               ; preds = %14
  %20 = icmp slt i32 %16, 16
  br i1 %20, label %21, label %29

21:                                               ; preds = %19
  %22 = getelementptr inbounds nuw i8, ptr %1, i64 8
  %23 = load ptr, ptr %22, align 8
  %.not9.i.i = icmp eq ptr %23, null
  br i1 %.not9.i.i, label %26, label %24

24:                                               ; preds = %21
  %25 = tail call dereferenceable_or_null(128) ptr @realloc(ptr noundef nonnull %23, i64 noundef 128) #12
  br label %Vec_PtrGrow.exit.i

26:                                               ; preds = %21
  %27 = tail call noalias dereferenceable_or_null(128) ptr @malloc(i64 noundef 128) #11
  br label %Vec_PtrGrow.exit.i

Vec_PtrGrow.exit.i:                               ; preds = %26, %24
  %28 = phi ptr [ %25, %24 ], [ %27, %26 ]
  store ptr %28, ptr %22, align 8
  store i32 16, ptr %1, align 8
  br label %Vec_PtrPush.exit

29:                                               ; preds = %19
  %30 = shl nuw nsw i32 %16, 1
  %31 = getelementptr inbounds nuw i8, ptr %1, i64 8
  %32 = load ptr, ptr %31, align 8
  %.not9.i10.i = icmp eq ptr %32, null
  %33 = zext nneg i32 %30 to i64
  %34 = shl nuw nsw i64 %33, 3
  br i1 %.not9.i10.i, label %37, label %35

35:                                               ; preds = %29
  %36 = tail call ptr @realloc(ptr noundef nonnull %32, i64 noundef %34) #12
  br label %39

37:                                               ; preds = %29
  %38 = tail call noalias ptr @malloc(i64 noundef %34) #11
  br label %39

39:                                               ; preds = %37, %35
  %40 = phi ptr [ %36, %35 ], [ %38, %37 ]
  store ptr %40, ptr %31, align 8
  store i32 %30, ptr %1, align 8
  br label %Vec_PtrPush.exit

Vec_PtrPush.exit:                                 ; preds = %.Vec_PtrGrow.exit11_crit_edge.i, %Vec_PtrGrow.exit.i, %39
  %41 = phi ptr [ %.pre.i, %.Vec_PtrGrow.exit11_crit_edge.i ], [ %40, %39 ], [ %28, %Vec_PtrGrow.exit.i ]
  %42 = load i32, ptr %15, align 4
  %43 = add nsw i32 %42, 1
  store i32 %43, ptr %15, align 4
  %44 = sext i32 %42 to i64
  %45 = getelementptr inbounds ptr, ptr %41, i64 %44
  store ptr %0, ptr %45, align 8
  br label %46

46:                                               ; preds = %2, %Vec_PtrPush.exit
  ret void
}